target datalayout = "e-m:e-p270:32:32-p271:32:32-p272:64:64-i64:64-i128:128-f80:128-n8:16:32:64-S128"
target triple = "x86_64-pc-linux-gnu"

%struct.Jpeg2000TgtNode = type { i8, i8, i8, ptr }

@.str.2 = private unnamed_addr constant [30 x i8] c"Assertion %s failed at %s:%d\0A\00", align 1
@.str.3 = private unnamed_addr constant [23 x i8] c"res + 1 < (2147483647)\00", align 1
@.str.4 = private unnamed_addr constant [22 x i8] c"libavcodec/jpeg2000.c\00", align 1

; Function Attrs: nounwind uwtable
define internal i32 @tag_tree_size(i32 noundef %0, i32 noundef %1) #0 {
  %3 = alloca i32, align 4
  %4 = alloca i32, align 4
  %5 = alloca i64, align 8
  store i32 %0, ptr %3, align 4, !tbaa !9
  store i32 %1, ptr %4, align 4, !tbaa !9
  call void @llvm.lifetime.start.p0(i64 8, ptr %5) #8
  store i64 0, ptr %5, align 8, !tbaa !17
  br label %6

6:                                                ; preds = %29, %2
  %7 = load i32, ptr %3, align 4, !tbaa !9
  %8 = icmp sgt i32 %7, 1
  br i1 %8, label %12, label %9

9:                                                ; preds = %6
  %10 = load i32, ptr %4, align 4, !tbaa !9
  %11 = icmp sgt i32 %10, 1
  br label %12

12:                                               ; preds = %9, %6
  %13 = phi i1 [ true, %6 ], [ %11, %9 ]
  br i1 %13, label %14, label %36

14:                                               ; preds = %12
  %15 = load i32, ptr %3, align 4, !tbaa !9
  %16 = sext i32 %15 to i64
  %17 = load i32, ptr %4, align 4, !tbaa !9
  %18 = sext i32 %17 to i64
  %19 = mul nsw i64 %16, %18
  %20 = load i64, ptr %5, align 8, !tbaa !17
  %21 = add nsw i64 %20, %19
  store i64 %21, ptr %5, align 8, !tbaa !17
  br label %22

22:                                               ; preds = %14
  %23 = load i64, ptr %5, align 8, !tbaa !17
  %24 = add nsw i64 %23, 1
  %25 = icmp slt i64 %24, 2147483647
  br i1 %25, label %27, label %26

26:                                               ; preds = %22
  call void (ptr, i32, ptr, ...) @av_log(ptr noundef null, i32 noundef 0, ptr noundef @.str.2, ptr noundef @.str.3, ptr noundef @.str.4, i32 noundef 47)
  call void @abort() #9
  unreachable

27:                                               ; preds = %22
  br label %28

28:                                               ; preds = %27
  br label %29

29:                                               ; preds = %28
  %30 = load i32, ptr %3, align 4, !tbaa !9
  %31 = add nsw i32 %30, 1
  %32 = ashr i32 %31, 1
  store i32 %32, ptr %3, align 4, !tbaa !9
  %33 = load i32, ptr %4, align 4, !tbaa !9
  %34 = add nsw i32 %33, 1
  %35 = ashr i32 %34, 1
  store i32 %35, ptr %4, align 4, !tbaa !9
  br label %6, !llvm.loop !19

36:                                               ; preds = %12
  %37 = load i64, ptr %5, align 8, !tbaa !17
  %38 = add nsw i64 %37, 1
  %39 = trunc i64 %38 to i32
  call void @llvm.lifetime.end.p0(i64 8, ptr %5) #8
  ret i32 %39
}

; Function Attrs: nounwind uwtable
define void @ff_tag_tree_zero(ptr noundef %0, i32 noundef %1, i32 noundef %2, i32 noundef %3) #0 {
  %5 = alloca ptr, align 8
  %6 = alloca i32, align 4
  %7 = alloca i32, align 4
  %8 = alloca i32, align 4
  %9 = alloca i32, align 4
  %10 = alloca i32, align 4
  store ptr %0, ptr %5, align 8, !tbaa !4
  store i32 %1, ptr %6, align 4, !tbaa !9
  store i32 %2, ptr %7, align 4, !tbaa !9
  store i32 %3, ptr %8, align 4, !tbaa !9
  call void @llvm.lifetime.start.p0(i64 4, ptr %9) #8
  call void @llvm.lifetime.start.p0(i64 4, ptr %10) #8
  %11 = load i32, ptr %6, align 4, !tbaa !9
  %12 = load i32, ptr %7, align 4, !tbaa !9
  %13 = call i32 @tag_tree_size(i32 noundef %11, i32 noundef %12)
  store i32 %13, ptr %10, align 4, !tbaa !9
  store i32 0, ptr %9, align 4, !tbaa !9
  br label %14

14:                                               ; preds = %36, %4
  %15 = load i32, ptr %9, align 4, !tbaa !9
  %16 = load i32, ptr %10, align 4, !tbaa !9
  %17 = icmp slt i32 %15, %16
  br i1 %17, label %18, label %39

18:                                               ; preds = %14
  %19 = load i32, ptr %8, align 4, !tbaa !9
  %20 = trunc i32 %19 to i8
  %21 = load ptr, ptr %5, align 8, !tbaa !4
  %22 = load i32, ptr %9, align 4, !tbaa !9
  %23 = sext i32 %22 to i64
  %24 = getelementptr inbounds %struct.Jpeg2000TgtNode, ptr %21, i64 %23
  %25 = getelementptr inbounds nuw %struct.Jpeg2000TgtNode, ptr %24, i32 0, i32 0
  store i8 %20, ptr %25, align 8, !tbaa !11
  %26 = load ptr, ptr %5, align 8, !tbaa !4
  %27 = load i32, ptr %9, align 4, !tbaa !9
  %28 = sext i32 %27 to i64
  %29 = getelementptr inbounds %struct.Jpeg2000TgtNode, ptr %26, i64 %28
  %30 = getelementptr inbounds nuw %struct.Jpeg2000TgtNode, ptr %29, i32 0, i32 1
  store i8 0, ptr %30, align 1, !tbaa !13
  %31 = load ptr, ptr %5, align 8, !tbaa !4
  %32 = load i32, ptr %9, align 4, !tbaa !9
  %33 = sext i32 %32 to i64
  %34 = getelementptr inbounds %struct.Jpeg2000TgtNode, ptr %31, i64 %33
  %35 = getelementptr inbounds nuw %struct.Jpeg2000TgtNode, ptr %34, i32 0, i32 2
  store i8 0, ptr %35, align 2, !tbaa !14
  br label %36

36:                                               ; preds = %18
  %37 = load i32, ptr %9, align 4, !tbaa !9
  %38 = add nsw i32 %37, 1
  store i32 %38, ptr %9, align 4, !tbaa !9
  br label %14, !llvm.loop !15

39:                                               ; preds = %14
  call void @llvm.lifetime.end.p0(i64 4, ptr %10) #8
  call void @llvm.lifetime.end.p0(i64 4, ptr %9) #8
  ret void
}