; Function Attrs: nounwind uwtable
define void @ff_tag_tree_zero(ptr noundef writeonly captures(none) %0, i32 noundef %1, i32 noundef %2, i32 noundef %3) local_unnamed_addr #0 {
  %5 = icmp sgt i32 %1, 1
  %6 = icmp sgt i32 %2, 1
  %7 = or i1 %5, %6
  br i1 %7, label %.lr.ph.i, label %.lr.ph

.lr.ph.i:                                         ; preds = %4, %14
  %.014.i = phi i64 [ %11, %14 ], [ 0, %4 ]
  %.0913.i = phi i32 [ %18, %14 ], [ %2, %4 ]
  %.01012.i = phi i32 [ %16, %14 ], [ %1, %4 ]
  %8 = sext i32 %.01012.i to i64
  %9 = sext i32 %.0913.i to i64
  %10 = mul nsw i64 %8, %9
  %11 = add nsw i64 %10, %.014.i
  %12 = icmp slt i64 %11, 2147483646
  br i1 %12, label %14, label %13

13:                                               ; preds = %.lr.ph.i
  tail call void (ptr, i32, ptr, ...) @av_log(ptr noundef null, i32 noundef 0, ptr noundef nonnull @.str.2, ptr noundef nonnull @.str.3, ptr noundef nonnull @.str.4, i32 noundef 47) #8
  tail call void @abort() #9
  unreachable

14:                                               ; preds = %.lr.ph.i
  %15 = add nsw i32 %.01012.i, 1
  %16 = ashr i32 %15, 1
  %17 = add nsw i32 %.0913.i, 1
  %18 = ashr i32 %17, 1
  %19 = icmp sgt i32 %16, 1
  %20 = icmp sgt i32 %18, 1
  %21 = select i1 %19, i1 true, i1 %20
  br i1 %21, label %.lr.ph.i, label %tag_tree_size.exit, !llvm.loop !4

tag_tree_size.exit:                               ; preds = %14
  %22 = trunc i64 %11 to i32
  %23 = add i64 %11, 1
  %24 = icmp ult i32 %22, 2147483647
  br i1 %24, label %.lr.ph, label %._crit_edge

.lr.ph:                                           ; preds = %4, %tag_tree_size.exit
  %.0.lcssa.i16 = phi i64 [ %23, %tag_tree_size.exit ], [ 1, %4 ]
  %25 = trunc i32 %3 to i8
  %wide.trip.count = and i64 %.0.lcssa.i16, 4294967295
  br label %26

26:                                               ; preds = %.lr.ph, %26
  %indvars.iv = phi i64 [ 0, %.lr.ph ], [ %indvars.iv.next, %26 ]
  %27 = getelementptr inbounds nuw %struct.Jpeg2000TgtNode, ptr %0, i64 %indvars.iv
  store i8 %25, ptr %27, align 8, !tbaa !6
  %28 = getelementptr inbounds nuw i8, ptr %27, i64 1
  store i8 0, ptr %28, align 1, !tbaa !12
  %29 = getelementptr inbounds nuw i8, ptr %27, i64 2
  store i8 0, ptr %29, align 2, !tbaa !13
  %indvars.iv.next = add nuw nsw i64 %indvars.iv, 1
  %exitcond.not = icmp eq i64 %indvars.iv.next, %wide.trip.count
  br i1 %exitcond.not, label %._crit_edge, label %26, !llvm.loop !14

._crit_edge:                                      ; preds = %26, %tag_tree_size.exit
  ret void
}